L251 LINKER/LOCATER V4.66.93.0                                                          06/02/2023  17:32:45  PAGE 1


L251 LINKER/LOCATER V4.66.93.0, INVOKED BY:
C:\KEIL_V5\C251\BIN\L251.EXE .\Objects\main.obj, .\Objects\pwm.obj, .\Objects\oled.obj TO .\Objects\project PRINT (.\Lis
>> tings\project.map) CASE CLASSES (EDATA (0X0-0XFFF), HDATA (0X0-0XFFF))


CPU MODE:     251 SOURCE MODE
INTR FRAME:   2 BYTES SAVED ON INTERRUPT
MEMORY MODEL: LARGE WITH FLOATING POINT ARITHMETIC


INPUT MODULES INCLUDED:
  .\Objects\main.obj (main)
         COMMENT TYPE 0: C251 V5.60.0
  .\Objects\pwm.obj (pwm)
         COMMENT TYPE 0: C251 V5.60.0
  .\Objects\oled.obj (oled)
         COMMENT TYPE 0: C251 V5.60.0
  C:\KEIL_V5\C251\LIB\C2SFPL.LIB (?C?FPADD)
         COMMENT TYPE 0: A251 V4.69.6.0
  C:\KEIL_V5\C251\LIB\C2SFPL.LIB (?C?FPMUL)
         COMMENT TYPE 0: A251 V4.69.6.0
  C:\KEIL_V5\C251\LIB\C2SFPL.LIB (?C?FPDIV)
         COMMENT TYPE 0: A251 V4.69.6.0
  C:\KEIL_V5\C251\LIB\C2SFPL.LIB (?C?FCAST)
         COMMENT TYPE 0: A251 V4.69.6.0
  C:\KEIL_V5\C251\LIB\C2SFPL.LIB (SPRINTF)
         COMMENT TYPE 0: A251 V4.69.6.0
  C:\KEIL_V5\C251\LIB\C2SFPL.LIB (?C?FPGETOPN)
         COMMENT TYPE 0: A251 V4.69.6.0
  C:\KEIL_V5\C251\LIB\C2SFPL.LIB (?C?PRNFMT)
         COMMENT TYPE 0: A251 V4.69.6.0
  C:\KEIL_V5\C251\LIB\C2SFPL.LIB (?C?FPCONVERT)
         COMMENT TYPE 0: A251 V4.69.6.0
  C:\KEIL_V5\C251\LIB\C2SFPL.LIB (?C?FTNPWR)
         COMMENT TYPE 0: A251 V4.69.6.0
  C:\KEIL_V5\C251\LIB\C2SL.LIB (?C_START)
         COMMENT TYPE 0: A251 V4.69.6.0
  C:\KEIL_V5\C251\LIB\C2SL.LIB (?C?INITHDATA)
         COMMENT TYPE 0: A251 V4.69.6.0
  C:\KEIL_V5\C251\LIB\C2SL.LIB (?C?SIDIV)
         COMMENT TYPE 0: A251 V4.69.6.0
  C:\KEIL_V5\C251\LIB\C2SL.LIB (?C?INITHDATA_END)
         COMMENT TYPE 0: A251 V4.69.6.0


ACTIVE MEMORY CLASSES OF MODULE:  .\Objects\project (main)

BASE        START       END         USED      MEMORY CLASS
==========================================================
000000H     000000H     000FFFH     000100H   EDATA
000000H     000000H     000FFFH               HDATA
000000H     FF0000H     FFFFFFH     00005BH   HCONST
FF0000H     FF0000H     FFFFFFH     001CD6H   CODE
010000H     010000H     01FFFFH     00007CH   XDATA
000020H.0   000020H.0   00002FH.7   000000H.1 BIT
FF0000H     FF0000H     FFFFFFH     000004H   CONST
000000H     000000H     00007FH     000008H   DATA


MEMORY MAP OF MODULE:  .\Objects\project (main)


START     STOP      LENGTH    ALIGN  RELOC    MEMORY CLASS   SEGMENT NAME
=========================================================================
000000H   000007H   000008H   ---    AT..     DATA           "REG BANK 0"
000008H.0 00001FH.7 000018H.0 ---    ---      **GAP**
L251 LINKER/LOCATER V4.66.93.0                                                        06/02/2023  17:32:45  PAGE 2


000020H.0 000020H.0 000000H.1 BIT    UNIT     BIT            ?BI?MAIN
000020H.1 000020H   000000H.7 ---    ---      **GAP**
000021H   000120H   000100H   BYTE   UNIT     EDATA          ?STACK
000121H   00FFFFH   00FEDFH   ---    ---      **GAP**
010000H   010041H   000042H   BYTE   INSEG    XDATA          ?XD?MAIN
010042H   010069H   000028H   BYTE   UNIT     XDATA          _XDATA_GROUP_
01006AH   010071H   000008H   BYTE   UNIT     XDATA          ?XD?OLED_DRAWBMP?OLED
010072H   010077H   000006H   BYTE   UNIT     XDATA          ?XD?OLED_SHOWNUM?OLED
010078H   01007BH   000004H   BYTE   UNIT     XDATA          ?XD?OLED_SHOWCHINESE?OLED
01007CH   FEFFFFH   FDFF84H   ---    ---      **GAP**
FF0000H   FF0002H   000003H   ---    OFFS..   CODE           ?CO?start251?4
FF0003H   FF0005H   000003H   ---    OFFS..   CODE           ?PR?IV?0
FF0006H   FF0006H   000001H   BYTE   INSEG    CODE           ?PR?TIMER0_ISR?MAIN
FF0007H   FF000AH   000004H   BYTE   UNIT     CONST          ?CO?PRINTF
FF000BH   FF000DH   000003H   ---    OFFS..   CODE           ?PR?IV?1
FF000EH   FF0905H   0008F8H   BYTE   UNIT     CODE           ?CO?OLED
FF0906H   FF1170H   00086BH   BYTE   UNIT     CODE           ?C?LIB_CODE
FF1171H   FF1570H   000400H   BYTE   UNIT     CODE           ?CO?MAIN
FF1571H   FF164FH   0000DFH   BYTE   INSEG    CODE           ?PR?OLED_SHOWCHAR?OLED
FF1650H   FF172AH   0000DBH   BYTE   INSEG    CODE           ?PR?OLED_SHOWNUM?OLED
FF172BH   FF17FAH   0000D0H   BYTE   INSEG    CODE           ?PR?OLED_INIT?OLED
FF17FBH   FF18B2H   0000B8H   BYTE   INSEG    CODE           ?PR?MAIN?MAIN
FF18B3H   FF1962H   0000B0H   BYTE   INSEG    CODE           ?PR?OLED_DRAWBMP?OLED
FF1963H   FF19F0H   00008EH   BYTE   INSEG    CODE           ?PR?OLED_SHOWCHINESE?OLED
FF19F1H   FF1A74H   000084H   BYTE   INSEG    CODE           ?PR?PWM_INIT?PWM
FF1A75H   FF1AEEH   00007AH   BYTE   INSEG    CODE           ?PR?OLED_SHOWSTRING?OLED
FF1AEFH   FF1B42H   000054H   BYTE   INSEG    CODE           ?PR?INT0_?MAIN
FF1B43H   FF1B55H   000013H   BYTE   UNIT     CODE           ?C_C51STARTUP
FF1B56H   FF1B57H   000002H   BYTE   UNIT     CODE           ?C_C51STARTUP?1
FF1B58H   FF1B88H   000031H   BYTE   UNIT     CODE           ?C_C51STARTUP?2
FF1B89H   FF1B8BH   000003H   BYTE   UNIT     CODE           ?C_C51STARTUP?3
FF1B8CH   FF1BC1H   000036H   BYTE   INSEG    CODE           ?PR?OLED_CLEAR?OLED
FF1BC2H   FF1BEDH   00002CH   BYTE   INSEG    CODE           ?PR?OLED_DISPLAYTURN?OLED
FF1BEEH   FF1C18H   00002BH   BYTE   INSEG    CODE           ?PR?OLED_WR_BYTE?OLED
FF1C19H   FF1C41H   000029H   BYTE   INSEG    CODE           ?PR?OLED_SET_POS?OLED
FF1C42H   FF1C5FH   00001EH   BYTE   INSEG    CODE           ?PR?OLED_COLORTURN?OLED
FF1C60H   FF1C76H   000017H   BYTE   INSEG    CODE           ?PR?DELAY_MS?OLED
FF1C77H   FF1C8DH   000017H   BYTE   INSEG    CODE           ?PR?OLED_POW?OLED
FF1C8EH   FF1CA2H   000015H   BYTE   INSEG    CODE           ?PR?OLED_DISPLAY_ON?OLED
FF1CA3H   FF1CB7H   000015H   BYTE   INSEG    CODE           ?PR?OLED_DISPLAY_OFF?OLED
FF1CB8H   FF1CCAH   000013H   BYTE   INSEG    CODE           ?PR?TIMER0_INIT?MAIN
FF1CCBH   FF1CD9H   00000FH   BYTE   INSEG    CODE           ?PR?DING1_INIT?MAIN
FF1CDAH   FF1D2DH   000054H   BYTE   UNIT     HCONST         ?C_INITHDATA
FF1D2EH   FF1D34H   000007H   BYTE   UNIT     HCONST         ?HC?MAIN



OVERLAY MAP OF MODULE:   .\Objects\project (main)


FUNCTION/MODULE             XDATA_GROUP
--> CALLED FUNCTION/MODULE  START  STOP
=======================================
Timer0_Isr/main             ----- -----

*** NEW ROOT **************

INT0_/main                  ----- -----

*** NEW ROOT **************

?C_C51STARTUP?1             ----- -----

*** NEW ROOT **************

L251 LINKER/LOCATER V4.66.93.0                                                        06/02/2023  17:32:45  PAGE 3


?C_C51STARTUP               ----- -----

*** NEW ROOT **************

?C_C51STARTUP?3             ----- -----
  +--> main/main

main/main                   ----- -----
  +--> OLED_Init/oled
  +--> OLED_ColorTurn/oled
  +--> OLED_DisplayTurn/oled
  +--> Timer0_Init/main
  +--> ding1_Init/main
  +--> SPRINTF/SPRINTF
  +--> OLED_ShowString/oled

OLED_Init/oled              ----- -----
  +--> delay_ms/oled
  +--> OLED_WR_Byte/oled
  +--> OLED_Clear/oled

delay_ms/oled               ----- -----

OLED_WR_Byte/oled           ----- -----

OLED_Clear/oled             ----- -----
  +--> OLED_WR_Byte/oled

OLED_ColorTurn/oled         ----- -----
  +--> OLED_WR_Byte/oled

OLED_DisplayTurn/oled       ----- -----
  +--> OLED_WR_Byte/oled

Timer0_Init/main            ----- -----

ding1_Init/main             ----- -----

SPRINTF/SPRINTF             0042H 0069H
  +--> OUT/SPRINTF

OUT/SPRINTF                 ----- -----
  +--> PUTCH/SPRINTF

PUTCH/SPRINTF               ----- -----

OLED_ShowString/oled        0042H 0045H
  +--> OLED_ShowChar/oled

OLED_ShowChar/oled          0046H 004AH
  +--> OLED_Set_Pos/oled
  +--> OLED_WR_Byte/oled

OLED_Set_Pos/oled           ----- -----
  +--> OLED_WR_Byte/oled

*** NEW ROOT **************

?C_C51STARTUP?2             ----- -----



PUBLIC SYMBOLS OF MODULE:  .\Objects\project (main)


L251 LINKER/LOCATER V4.66.93.0                                                        06/02/2023  17:32:45  PAGE 4


      VALUE       CLASS    TYPE      PUBLIC SYMBOL NAME
      =================================================
      000000FFH   NUMBER   ---       ?C?CODESEG
      00FF0AEFH   CODE     NEAR LAB  ?C?FCASTC
      00FF0AEAH   CODE     NEAR LAB  ?C?FCASTI
      00FF0AE5H   CODE     NEAR LAB  ?C?FCASTL
      00FF090CH   CODE     ---       ?C?FPADD
      00FF0FDDH   CODE     ---       ?C?FPCONVERT
      00FF0A64H   CODE     ---       ?C?FPDIV
      00FF0B42H   CODE     ---       ?C?FPGETOPN2
      00FF09C4H   CODE     ---       ?C?FPMUL
      00FF0B7FH   CODE     ---       ?C?FPNANRESULT
      00FF0B87H   CODE     ---       ?C?FPOVERFLOW
      00FF0B5BH   CODE     ---       ?C?FPRESULT
      00FF0B71H   CODE     ---       ?C?FPRESULT2
      00FF1095H   CODE     ---       ?C?FPROUND
      00FF0909H   CODE     ---       ?C?FPSUB
      00FF0B84H   CODE     ---       ?C?FPUNDERFLOW
      00FF1108H   CODE     ---       ?C?FTNPWR
      00FF1B58H   CODE     ---       ?C?INITHDATA
      00FF1D2CH   HCONST   WORD      ?C?INITHDATA_END
      00FF0BC0H   CODE     ---       ?C?PRNFMT
      00FF113FH   CODE     ---       ?C?SIDIV
      00FF0000H   CODE     ---       ?C?STARTUP
      00000001H   NUMBER   ---       ?C?XDATASEG
      00FF0000H   CODE     ---       ?C_STARTUP
      0001006AH   XDATA    ---       ?sprintf?BYTE
*SFR* 000000BCH   DATA     BYTE      ADC_CONTR
*SFR* 000000DEH   DATA     BYTE      ADCCFG
      00FF000EH   CODE     ---       asc2_0806
      00FF0236H   CODE     ---       asc2_1608
*SFR* 000000EFH   DATA     BYTE      AUXINTIF
*SFR* 0000008EH   DATA     BYTE      AUXR
*SFR* 00000097H   DATA     BYTE      AUXR2
      00FF1171H   CODE     ---       BMP1
      0001003EH   XDATA    FLOAT     c
*SFR* 000000F1H   DATA     BYTE      CANICR
*SFR* 000000EAH   DATA     BYTE      CKCON
*SFR* 000000E6H   DATA     BYTE      CMPCR1
*SFR* 000000E7H   DATA     BYTE      CMPCR2
      00FF1C60H   CODE     ---       delay_ms
      00FF1CCBH   CODE     ---       ding1_Init
      0001000CH   XDATA    ---       dis_buf
*SFR* 000000A8H.7 DATA     BIT       EA
*SFR* 000000BAH.7 DATA     BIT       EAXFR
*SFR* 000000A8H.1 DATA     BIT       ET0
*SFR* 000000A8H.0 DATA     BIT       EX0
      00FF0826H   CODE     ---       Hzk
*SFR* 000000C7H   DATA     BYTE      IAP_CONTR
*SFR* 000000A8H   DATA     BYTE      IE
*SFR* 000000AFH   DATA     BYTE      IE2
      00FF1AEFH   CODE     ---       INT0_
*SFR* 0000008FH   DATA     BYTE      INTCLKO
*SFR* 000000B8H   DATA     BYTE      IP
*SFR* 000000B5H   DATA     BYTE      IP2
*SFR* 000000B6H   DATA     BYTE      IP2H
*SFR* 000000DFH   DATA     BYTE      IP3
*SFR* 000000EEH   DATA     BYTE      IP3H
*SFR* 000000B7H   DATA     BYTE      IPH
*SFR* 0000009DH   DATA     BYTE      IRCBAND
*SFR* 00000088H.0 DATA     BIT       IT0
*SFR* 000000F9H   DATA     BYTE      LINICR
      00FF17FBH   CODE     ---       main
      00FF1B8CH   CODE     ---       OLED_Clear
      00FF1C42H   CODE     ---       OLED_ColorTurn
L251 LINKER/LOCATER V4.66.93.0                                                        06/02/2023  17:32:45  PAGE 5


*SFR* 000000C0H.4 DATA     BIT       OLED_CS
*SFR* 000000C0H.3 DATA     BIT       OLED_DC
      00FF1CA3H   CODE     ---       OLED_Display_Off
      00FF1C8EH   CODE     ---       OLED_Display_On
      00FF1BC2H   CODE     ---       OLED_DisplayTurn
      00FF18B3H   CODE     ---       OLED_DrawBMP
      00FF172BH   CODE     ---       OLED_Init
      00FF1C77H   CODE     ---       oled_pow
*SFR* 000000C0H.2 DATA     BIT       OLED_RES
*SFR* 000000C0H.0 DATA     BIT       OLED_SCL
*SFR* 000000C0H.1 DATA     BIT       OLED_SDA
      00FF1C19H   CODE     ---       OLED_Set_Pos
      00FF1571H   CODE     ---       OLED_ShowChar
      00FF1963H   CODE     ---       OLED_ShowChinese
      00FF1650H   CODE     ---       OLED_ShowNum
      00FF1A75H   CODE     ---       OLED_ShowString
      00FF1BEEH   CODE     ---       OLED_WR_Byte
*SFR* 00000080H   DATA     BYTE      P0
*SFR* 00000090H   DATA     BYTE      P1
*SFR* 000000A0H   DATA     BYTE      P2
*SFR* 00000096H   DATA     BYTE      P2M0
*SFR* 00000095H   DATA     BYTE      P2M1
*SFR* 000000B0H   DATA     BYTE      P3
*SFR* 000000B2H   DATA     BYTE      P3M0
*SFR* 000000B1H   DATA     BYTE      P3M1
*SFR* 000000C0H   DATA     BYTE      P4
*SFR* 000000B4H   DATA     BYTE      P4M0
*SFR* 000000B3H   DATA     BYTE      P4M1
*SFR* 000000C8H   DATA     BYTE      P5
*SFR* 000000E8H   DATA     BYTE      P6
*SFR* 000000F8H   DATA     BYTE      P7
*SFR* 000000A2H   DATA     BYTE      P_SW1
*SFR* 000000BAH   DATA     BYTE      P_SW2
*SFR* 000000BBH   DATA     BYTE      P_SW3
*SFR* 00000087H   DATA     BYTE      PCON
*SFR* 000000D0H   DATA     BYTE      PSW
      00FF19F1H   CODE     ---       pwm_Init
*SFR* 000000FFH   DATA     BYTE      RSTCFG
*SFR* 0000009AH   DATA     BYTE      S2CON
*SFR* 000000ACH   DATA     BYTE      S3CON
*SFR* 000000FDH   DATA     BYTE      S4CON
*SFR* 00000098H   DATA     BYTE      SCON
*SFR* 000000CEH   DATA     BYTE      SPCTL
      00FF0B22H   CODE     NEAR LAB  sprintf
*SFR* 000000CDH   DATA     BYTE      SPSTAT
      00000020H.0 BIT      BIT       ssy
*SFR* 000000DDH   DATA     BYTE      T4T3M
*SFR* 00000088H   DATA     BYTE      TCON
*SFR* 00000088H.5 DATA     BIT       TF0
*SFR* 0000008CH   DATA     BYTE      TH0
      00010004H   XDATA    FLOAT     TH0_NUM
*SFR* 0000008DH   DATA     BYTE      TH1
      00010000H   XDATA    FLOAT     TIME_NUM
      00FF1CB8H   CODE     ---       Timer0_Init
      00FF0006H   CODE     ---       Timer0_Isr
*SFR* 0000008AH   DATA     BYTE      TL0
      00010008H   XDATA    FLOAT     TL0_NUM
*SFR* 0000008BH   DATA     BYTE      TL1
*SFR* 00000089H   DATA     BYTE      TMOD
*SFR* 00000088H.4 DATA     BIT       TR0
*SFR* 00000088H.6 DATA     BIT       TR1
*SFR* 000000F4H   DATA     BYTE      USBCON
*SFR* 000000C1H   DATA     BYTE      WDT_CONTR
*SFR* 000000E9H   DATA     BYTE      WTST

L251 LINKER/LOCATER V4.66.93.0                                                        06/02/2023  17:32:45  PAGE 6




SYMBOL TABLE OF MODULE:  .\Objects\project (main)

      VALUE       REP       CLASS    TYPE      SYMBOL NAME
      ====================================================
      ---         MODULE    ---      ---       main
      00FF17FBH   PUBLIC    CODE     ---       main
      00FF1CB8H   PUBLIC    CODE     ---       Timer0_Init
      00FF0006H   PUBLIC    CODE     ---       Timer0_Isr
      00FF1CCBH   PUBLIC    CODE     ---       ding1_Init
      00FF1AEFH   PUBLIC    CODE     ---       INT0_
      00010000H   PUBLIC    XDATA    FLOAT     TIME_NUM
      00010004H   PUBLIC    XDATA    FLOAT     TH0_NUM
      00010008H   PUBLIC    XDATA    FLOAT     TL0_NUM
      0001000CH   PUBLIC    XDATA    ---       dis_buf
      0001003EH   PUBLIC    XDATA    FLOAT     c
      00FF1171H   PUBLIC    CODE     ---       BMP1
      00000020H.0 PUBLIC    BIT      BIT       ssy
      000000D0H   SFRSYM    DATA     BYTE      PSW
      000000BAH.7 SFRSYM    DATA     BIT       EAXFR
      0000009DH   SFRSYM    DATA     BYTE      IRCBAND
      00000097H   SFRSYM    DATA     BYTE      AUXR2
      000000EAH   SFRSYM    DATA     BYTE      CKCON
      000000EFH   SFRSYM    DATA     BYTE      AUXINTIF
      000000FDH   SFRSYM    DATA     BYTE      S4CON
      000000ACH   SFRSYM    DATA     BYTE      S3CON
      0000009AH   SFRSYM    DATA     BYTE      S2CON
      000000B7H   SFRSYM    DATA     BYTE      IPH
      000000CDH   SFRSYM    DATA     BYTE      SPSTAT
      000000DDH   SFRSYM    DATA     BYTE      T4T3M
      000000C1H   SFRSYM    DATA     BYTE      WDT_CONTR
      00000088H.6 SFRSYM    DATA     BIT       TR1
      00000088H.4 SFRSYM    DATA     BIT       TR0
      000000E9H   SFRSYM    DATA     BYTE      WTST
      0000008BH   SFRSYM    DATA     BYTE      TL1
      0000008AH   SFRSYM    DATA     BYTE      TL0
      00000088H.0 SFRSYM    DATA     BIT       IT0
      0000008DH   SFRSYM    DATA     BYTE      TH1
      000000A8H.0 SFRSYM    DATA     BIT       EX0
      0000008CH   SFRSYM    DATA     BYTE      TH0
      000000DFH   SFRSYM    DATA     BYTE      IP3
      000000F4H   SFRSYM    DATA     BYTE      USBCON
      000000B5H   SFRSYM    DATA     BYTE      IP2
      000000FFH   SFRSYM    DATA     BYTE      RSTCFG
      00000088H.5 SFRSYM    DATA     BIT       TF0
      000000A8H.1 SFRSYM    DATA     BIT       ET0
      000000C7H   SFRSYM    DATA     BYTE      IAP_CONTR
      000000F9H   SFRSYM    DATA     BYTE      LINICR
      0000008EH   SFRSYM    DATA     BYTE      AUXR
      000000AFH   SFRSYM    DATA     BYTE      IE2
      00000088H   SFRSYM    DATA     BYTE      TCON
      00000089H   SFRSYM    DATA     BYTE      TMOD
      00000098H   SFRSYM    DATA     BYTE      SCON
      000000F1H   SFRSYM    DATA     BYTE      CANICR
      00000087H   SFRSYM    DATA     BYTE      PCON
      000000BCH   SFRSYM    DATA     BYTE      ADC_CONTR
      000000E7H   SFRSYM    DATA     BYTE      CMPCR2
      000000E6H   SFRSYM    DATA     BYTE      CMPCR1
      000000DEH   SFRSYM    DATA     BYTE      ADCCFG
      000000B8H   SFRSYM    DATA     BYTE      IP
      0000008FH   SFRSYM    DATA     BYTE      INTCLKO
      000000EEH   SFRSYM    DATA     BYTE      IP3H
      000000B6H   SFRSYM    DATA     BYTE      IP2H
      000000A8H   SFRSYM    DATA     BYTE      IE
L251 LINKER/LOCATER V4.66.93.0                                                        06/02/2023  17:32:45  PAGE 7


      000000BBH   SFRSYM    DATA     BYTE      P_SW3
      000000BAH   SFRSYM    DATA     BYTE      P_SW2
      000000A2H   SFRSYM    DATA     BYTE      P_SW1
      000000CEH   SFRSYM    DATA     BYTE      SPCTL
      000000F8H   SFRSYM    DATA     BYTE      P7
      000000A8H.7 SFRSYM    DATA     BIT       EA
      000000E8H   SFRSYM    DATA     BYTE      P6
      000000C8H   SFRSYM    DATA     BYTE      P5
      000000C0H   SFRSYM    DATA     BYTE      P4
      000000B0H   SFRSYM    DATA     BYTE      P3
      000000B3H   SFRSYM    DATA     BYTE      P4M1
      000000A0H   SFRSYM    DATA     BYTE      P2
      000000B1H   SFRSYM    DATA     BYTE      P3M1
      000000B4H   SFRSYM    DATA     BYTE      P4M0
      00000090H   SFRSYM    DATA     BYTE      P1
      00000095H   SFRSYM    DATA     BYTE      P2M1
      000000B2H   SFRSYM    DATA     BYTE      P3M0
      00000080H   SFRSYM    DATA     BYTE      P0
      00000096H   SFRSYM    DATA     BYTE      P2M0

      00FF0006H   BLOCK     CODE     ---       LVL=0
      00FF0006H   LINE      CODE     ---       #10
      00FF0006H   LINE      CODE     ---       #18
      ---         BLOCKEND  ---      ---       LVL=0

      00FF1CB8H   BLOCK     CODE     ---       LVL=0
      00FF1CB8H   LINE      CODE     ---       #20
      00FF1CB8H   LINE      CODE     ---       #22
      00FF1CBBH   LINE      CODE     ---       #23
      00FF1CBEH   LINE      CODE     ---       #24
      00FF1CC1H   LINE      CODE     ---       #25
      00FF1CC4H   LINE      CODE     ---       #26
      00FF1CC6H   LINE      CODE     ---       #27
      00FF1CC8H   LINE      CODE     ---       #28
      00FF1CCAH   LINE      CODE     ---       #29
      ---         BLOCKEND  ---      ---       LVL=0

      00FF1CCBH   BLOCK     CODE     ---       LVL=0
      00FF1CCBH   LINE      CODE     ---       #31
      00FF1CCBH   LINE      CODE     ---       #33
      00FF1CCEH   LINE      CODE     ---       #34
      00FF1CD1H   LINE      CODE     ---       #35
      00FF1CD4H   LINE      CODE     ---       #36
      00FF1CD7H   LINE      CODE     ---       #37
      00FF1CD9H   LINE      CODE     ---       #38
      ---         BLOCKEND  ---      ---       LVL=0

      00FF1AEFH   BLOCK     CODE     ---       LVL=0
      00FF1AEFH   LINE      CODE     ---       #40
      00FF1AFBH   LINE      CODE     ---       #42
      00FF1B01H   LINE      CODE     ---       #44
      00FF1B03H   LINE      CODE     ---       #45
      00FF1B05H   LINE      CODE     ---       #46
      00FF1B07H   LINE      CODE     ---       #47
      00FF1B0AH   LINE      CODE     ---       #49
      00FF1B0CH   LINE      CODE     ---       #50
      00FF1B1DH   LINE      CODE     ---       #51
      00FF1B2EH   LINE      CODE     ---       #52
      00FF1B30H   LINE      CODE     ---       #53
      00FF1B33H   LINE      CODE     ---       #54
      00FF1B36H   LINE      CODE     ---       #55
      ---         BLOCKEND  ---      ---       LVL=0

      00FF17FBH   BLOCK     CODE     ---       LVL=0
      00FF17FBH   LINE      CODE     ---       #62
L251 LINKER/LOCATER V4.66.93.0                                                        06/02/2023  17:32:45  PAGE 8


      00FF17FBH   LINE      CODE     ---       #65
      00FF17FEH   LINE      CODE     ---       #66
      00FF1801H   LINE      CODE     ---       #67
      00FF1804H   LINE      CODE     ---       #68
      00FF180AH   LINE      CODE     ---       #69
      00FF1810H   LINE      CODE     ---       #70
      00FF1816H   LINE      CODE     ---       #71
      00FF1818H   LINE      CODE     ---       #72
      00FF181AH   LINE      CODE     ---       #74
      00FF181DH   LINE      CODE     ---       #75
      00FF1821H   LINE      CODE     ---       #76
      00FF1825H   LINE      CODE     ---       #78
      00FF1827H   LINE      CODE     ---       #79
      00FF182AH   LINE      CODE     ---       #80
      00FF182DH   LINE      CODE     ---       #81
      00FF182DH   LINE      CODE     ---       #84
      00FF1881H   LINE      CODE     ---       #85
      00FF189EH   LINE      CODE     ---       #86
      00FF18B0H   LINE      CODE     ---       #89
      ---         BLOCKEND  ---      ---       LVL=0

      ---         MODULE    ---      ---       pwm
      00FF19F1H   PUBLIC    CODE     ---       pwm_Init
      000000D0H   SFRSYM    DATA     BYTE      PSW
      0000009DH   SFRSYM    DATA     BYTE      IRCBAND
      00000097H   SFRSYM    DATA     BYTE      AUXR2
      000000EFH   SFRSYM    DATA     BYTE      AUXINTIF
      000000FDH   SFRSYM    DATA     BYTE      S4CON
      000000ACH   SFRSYM    DATA     BYTE      S3CON
      0000009AH   SFRSYM    DATA     BYTE      S2CON
      000000B7H   SFRSYM    DATA     BYTE      IPH
      000000CDH   SFRSYM    DATA     BYTE      SPSTAT
      000000DDH   SFRSYM    DATA     BYTE      T4T3M
      000000C1H   SFRSYM    DATA     BYTE      WDT_CONTR
      000000DFH   SFRSYM    DATA     BYTE      IP3
      000000F4H   SFRSYM    DATA     BYTE      USBCON
      000000B5H   SFRSYM    DATA     BYTE      IP2
      000000FFH   SFRSYM    DATA     BYTE      RSTCFG
      000000C7H   SFRSYM    DATA     BYTE      IAP_CONTR
      000000F9H   SFRSYM    DATA     BYTE      LINICR
      0000008EH   SFRSYM    DATA     BYTE      AUXR
      000000AFH   SFRSYM    DATA     BYTE      IE2
      00000088H   SFRSYM    DATA     BYTE      TCON
      00000089H   SFRSYM    DATA     BYTE      TMOD
      00000098H   SFRSYM    DATA     BYTE      SCON
      000000F1H   SFRSYM    DATA     BYTE      CANICR
      00000087H   SFRSYM    DATA     BYTE      PCON
      000000BCH   SFRSYM    DATA     BYTE      ADC_CONTR
      000000E7H   SFRSYM    DATA     BYTE      CMPCR2
      000000E6H   SFRSYM    DATA     BYTE      CMPCR1
      000000DEH   SFRSYM    DATA     BYTE      ADCCFG
      000000B8H   SFRSYM    DATA     BYTE      IP
      0000008FH   SFRSYM    DATA     BYTE      INTCLKO
      000000EEH   SFRSYM    DATA     BYTE      IP3H
      000000B6H   SFRSYM    DATA     BYTE      IP2H
      000000A8H   SFRSYM    DATA     BYTE      IE
      000000BBH   SFRSYM    DATA     BYTE      P_SW3
      000000BAH   SFRSYM    DATA     BYTE      P_SW2
      000000A2H   SFRSYM    DATA     BYTE      P_SW1
      000000CEH   SFRSYM    DATA     BYTE      SPCTL
      000000F8H   SFRSYM    DATA     BYTE      P7
      000000E8H   SFRSYM    DATA     BYTE      P6
      000000C8H   SFRSYM    DATA     BYTE      P5
      000000C0H   SFRSYM    DATA     BYTE      P4
      000000B0H   SFRSYM    DATA     BYTE      P3
L251 LINKER/LOCATER V4.66.93.0                                                        06/02/2023  17:32:45  PAGE 9


      000000A0H   SFRSYM    DATA     BYTE      P2
      00000090H   SFRSYM    DATA     BYTE      P1
      00000080H   SFRSYM    DATA     BYTE      P0

      00FF19F1H   BLOCK     CODE     ---       LVL=0
      00FF19F1H   LINE      CODE     ---       #5
      00FF19F1H   LINE      CODE     ---       #7
      00FF19FDH   LINE      CODE     ---       #8
      00FF1A04H   LINE      CODE     ---       #10
      00FF1A0BH   LINE      CODE     ---       #11
      00FF1A14H   LINE      CODE     ---       #13
      00FF1A1CH   LINE      CODE     ---       #14
      00FF1A25H   LINE      CODE     ---       #16
      00FF1A2DH   LINE      CODE     ---       #17
      00FF1A35H   LINE      CODE     ---       #19
      00FF1A3DH   LINE      CODE     ---       #20
      00FF1A45H   LINE      CODE     ---       #22
      00FF1A4DH   LINE      CODE     ---       #23
      00FF1A5AH   LINE      CODE     ---       #24
      00FF1A5FH   LINE      CODE     ---       #26
      00FF1A68H   LINE      CODE     ---       #28
      00FF1A74H   LINE      CODE     ---       #29
      ---         BLOCKEND  ---      ---       LVL=0

      ---         MODULE    ---      ---       oled
      00FF1C8EH   PUBLIC    CODE     ---       OLED_Display_On
      00FF1BC2H   PUBLIC    CODE     ---       OLED_DisplayTurn
      00FF172BH   PUBLIC    CODE     ---       OLED_Init
      00FF1A75H   PUBLIC    CODE     ---       OLED_ShowString
      00FF1BEEH   PUBLIC    CODE     ---       OLED_WR_Byte
      00FF1571H   PUBLIC    CODE     ---       OLED_ShowChar
      00FF1C42H   PUBLIC    CODE     ---       OLED_ColorTurn
      00FF1C19H   PUBLIC    CODE     ---       OLED_Set_Pos
      00FF1C60H   PUBLIC    CODE     ---       delay_ms
      00FF1650H   PUBLIC    CODE     ---       OLED_ShowNum
      00FF1CA3H   PUBLIC    CODE     ---       OLED_Display_Off
      00FF1C77H   PUBLIC    CODE     ---       oled_pow
      00FF1963H   PUBLIC    CODE     ---       OLED_ShowChinese
      00FF1B8CH   PUBLIC    CODE     ---       OLED_Clear
      00FF18B3H   PUBLIC    CODE     ---       OLED_DrawBMP
      00FF000EH   PUBLIC    CODE     ---       asc2_0806
      00FF0236H   PUBLIC    CODE     ---       asc2_1608
      00FF0826H   PUBLIC    CODE     ---       Hzk
      000000D0H   SFRSYM    DATA     BYTE      PSW
      0000009DH   SFRSYM    DATA     BYTE      IRCBAND
      00000097H   SFRSYM    DATA     BYTE      AUXR2
      000000C0H.2 SFRSYM    DATA     BIT       OLED_RES
      000000EFH   SFRSYM    DATA     BYTE      AUXINTIF
      000000FDH   SFRSYM    DATA     BYTE      S4CON
      000000C0H.0 SFRSYM    DATA     BIT       OLED_SCL
      000000ACH   SFRSYM    DATA     BYTE      S3CON
      0000009AH   SFRSYM    DATA     BYTE      S2CON
      000000B7H   SFRSYM    DATA     BYTE      IPH
      000000CDH   SFRSYM    DATA     BYTE      SPSTAT
      000000C0H.1 SFRSYM    DATA     BIT       OLED_SDA
      000000DDH   SFRSYM    DATA     BYTE      T4T3M
      000000C1H   SFRSYM    DATA     BYTE      WDT_CONTR
      000000DFH   SFRSYM    DATA     BYTE      IP3
      000000F4H   SFRSYM    DATA     BYTE      USBCON
      000000B5H   SFRSYM    DATA     BYTE      IP2
      000000FFH   SFRSYM    DATA     BYTE      RSTCFG
      000000C7H   SFRSYM    DATA     BYTE      IAP_CONTR
      000000F9H   SFRSYM    DATA     BYTE      LINICR
      0000008EH   SFRSYM    DATA     BYTE      AUXR
      000000AFH   SFRSYM    DATA     BYTE      IE2
L251 LINKER/LOCATER V4.66.93.0                                                        06/02/2023  17:32:45  PAGE 10


      00000088H   SFRSYM    DATA     BYTE      TCON
      00000089H   SFRSYM    DATA     BYTE      TMOD
      00000098H   SFRSYM    DATA     BYTE      SCON
      000000F1H   SFRSYM    DATA     BYTE      CANICR
      00000087H   SFRSYM    DATA     BYTE      PCON
      000000BCH   SFRSYM    DATA     BYTE      ADC_CONTR
      000000E7H   SFRSYM    DATA     BYTE      CMPCR2
      000000E6H   SFRSYM    DATA     BYTE      CMPCR1
      000000C0H.4 SFRSYM    DATA     BIT       OLED_CS
      000000DEH   SFRSYM    DATA     BYTE      ADCCFG
      000000B8H   SFRSYM    DATA     BYTE      IP
      0000008FH   SFRSYM    DATA     BYTE      INTCLKO
      000000EEH   SFRSYM    DATA     BYTE      IP3H
      000000B6H   SFRSYM    DATA     BYTE      IP2H
      000000A8H   SFRSYM    DATA     BYTE      IE
      000000BBH   SFRSYM    DATA     BYTE      P_SW3
      000000BAH   SFRSYM    DATA     BYTE      P_SW2
      000000C0H.3 SFRSYM    DATA     BIT       OLED_DC
      000000A2H   SFRSYM    DATA     BYTE      P_SW1
      000000CEH   SFRSYM    DATA     BYTE      SPCTL
      000000F8H   SFRSYM    DATA     BYTE      P7
      000000E8H   SFRSYM    DATA     BYTE      P6
      000000C8H   SFRSYM    DATA     BYTE      P5
      000000C0H   SFRSYM    DATA     BYTE      P4
      000000B0H   SFRSYM    DATA     BYTE      P3
      000000A0H   SFRSYM    DATA     BYTE      P2
      00000090H   SFRSYM    DATA     BYTE      P1
      00000080H   SFRSYM    DATA     BYTE      P0

      00FF1C60H   BLOCK     CODE     ---       LVL=0
      WR2         REGSYM    ---      WORD      ms
      00FF1C62H   BLOCK     CODE     NEAR LAB  LVL=1
      WR0         REGSYM    ---      WORD      a
      ---         BLOCKEND  ---      ---       LVL=1
      00FF1C60H   LINE      CODE     ---       #14
      00FF1C62H   LINE      CODE     ---       #15
      00FF1C62H   LINE      CODE     ---       #17
      00FF1C64H   LINE      CODE     ---       #19
      00FF1C68H   LINE      CODE     ---       #20
      00FF1C70H   LINE      CODE     ---       #21
      00FF1C72H   LINE      CODE     ---       #22
      00FF1C76H   LINE      CODE     ---       #23
      00FF1C76H   LINE      CODE     ---       #24
      ---         BLOCKEND  ---      ---       LVL=0

      00FF1C42H   BLOCK     CODE     ---       LVL=0
      R15         REGSYM    ---      BYTE      i
      00FF1C42H   LINE      CODE     ---       #27
      00FF1C46H   LINE      CODE     ---       #29
      00FF1C4AH   LINE      CODE     ---       #31
      00FF1C51H   LINE      CODE     ---       #32
      00FF1C51H   LINE      CODE     ---       #33
      00FF1C56H   LINE      CODE     ---       #35
      00FF1C5DH   LINE      CODE     ---       #36
      ---         BLOCKEND  ---      ---       LVL=0

      00FF1BC2H   BLOCK     CODE     ---       LVL=0
      R15         REGSYM    ---      BYTE      i
      00FF1BC2H   LINE      CODE     ---       #40
      00FF1BC6H   LINE      CODE     ---       #42
      00FF1BCAH   LINE      CODE     ---       #44
      00FF1BD1H   LINE      CODE     ---       #45
      00FF1BD8H   LINE      CODE     ---       #46
      00FF1BD8H   LINE      CODE     ---       #47
      00FF1BDDH   LINE      CODE     ---       #49
L251 LINKER/LOCATER V4.66.93.0                                                        06/02/2023  17:32:45  PAGE 11


      00FF1BE4H   LINE      CODE     ---       #50
      00FF1BEBH   LINE      CODE     ---       #51
      ---         BLOCKEND  ---      ---       LVL=0

      00FF1BEEH   BLOCK     CODE     ---       LVL=0
      R10         REGSYM    ---      BYTE      dat
      R7          REGSYM    ---      BYTE      cmd
      00FF1BF0H   BLOCK     CODE     NEAR LAB  LVL=1
      R7          REGSYM    ---      BYTE      i
      ---         BLOCKEND  ---      ---       LVL=1
      00FF1BEEH   LINE      CODE     ---       #55
      00FF1BF0H   LINE      CODE     ---       #56
      00FF1BF0H   LINE      CODE     ---       #58
      00FF1BF4H   LINE      CODE     ---       #59
      00FF1BF8H   LINE      CODE     ---       #61
      00FF1BFAH   LINE      CODE     ---       #62
      00FF1BFCH   LINE      CODE     ---       #63
      00FF1BFFH   LINE      CODE     ---       #65
      00FF1C01H   LINE      CODE     ---       #66
      00FF1C06H   LINE      CODE     ---       #68
      00FF1C08H   LINE      CODE     ---       #69
      00FF1C0AH   LINE      CODE     ---       #72
      00FF1C0CH   LINE      CODE     ---       #73
      00FF1C0CH   LINE      CODE     ---       #74
      00FF1C0EH   LINE      CODE     ---       #75
      00FF1C10H   LINE      CODE     ---       #76
      00FF1C14H   LINE      CODE     ---       #77
      00FF1C16H   LINE      CODE     ---       #78
      00FF1C18H   LINE      CODE     ---       #79
      ---         BLOCKEND  ---      ---       LVL=0

      00FF1C19H   BLOCK     CODE     ---       LVL=0
      R15         REGSYM    ---      BYTE      x
      R10         REGSYM    ---      BYTE      y
      00FF1C19H   LINE      CODE     ---       #83
      00FF1C1DH   LINE      CODE     ---       #85
      00FF1C28H   LINE      CODE     ---       #86
      00FF1C36H   LINE      CODE     ---       #87
      00FF1C3FH   LINE      CODE     ---       #88
      ---         BLOCKEND  ---      ---       LVL=0

      00FF1C8EH   BLOCK     CODE     ---       LVL=0
      00FF1C8EH   LINE      CODE     ---       #90
      00FF1C8EH   LINE      CODE     ---       #92
      00FF1C95H   LINE      CODE     ---       #93
      00FF1C9CH   LINE      CODE     ---       #94
      ---         BLOCKEND  ---      ---       LVL=0

      00FF1CA3H   BLOCK     CODE     ---       LVL=0
      00FF1CA3H   LINE      CODE     ---       #97
      00FF1CA3H   LINE      CODE     ---       #99
      00FF1CAAH   LINE      CODE     ---       #100
      00FF1CB1H   LINE      CODE     ---       #101
      ---         BLOCKEND  ---      ---       LVL=0

      00FF1B8CH   BLOCK     CODE     ---       LVL=0
      00FF1B8EH   BLOCK     CODE     NEAR LAB  LVL=1
      R15         REGSYM    ---      BYTE      i
      R14         REGSYM    ---      BYTE      n
      ---         BLOCKEND  ---      ---       LVL=1
      00FF1B8CH   LINE      CODE     ---       #104
      00FF1B8EH   LINE      CODE     ---       #105
      00FF1B8EH   LINE      CODE     ---       #107
      00FF1B90H   LINE      CODE     ---       #109
      00FF1B9BH   LINE      CODE     ---       #110
L251 LINKER/LOCATER V4.66.93.0                                                        06/02/2023  17:32:45  PAGE 12


      00FF1BA1H   LINE      CODE     ---       #111
      00FF1BA8H   LINE      CODE     ---       #112
      00FF1BB8H   LINE      CODE     ---       #113
      00FF1BBFH   LINE      CODE     ---       #114
      ---         BLOCKEND  ---      ---       LVL=0

      00FF1571H   BLOCK     CODE     ---       LVL=0
      R13         REGSYM    ---      BYTE      x
      R14         REGSYM    ---      BYTE      y
      R3          REGSYM    ---      BYTE      chr
      R15         REGSYM    ---      BYTE      sizey
      00FF157BH   BLOCK     CODE     NEAR LAB  LVL=1
      R12         REGSYM    ---      BYTE      c
      00010046H   SYMBOL    XDATA    BYTE      sizex
      00010047H   SYMBOL    XDATA    WORD      i
      00010049H   SYMBOL    XDATA    WORD      size1
      ---         BLOCKEND  ---      ---       LVL=1
      00FF1571H   LINE      CODE     ---       #120
      00FF157BH   LINE      CODE     ---       #121
      00FF157BH   LINE      CODE     ---       #122
      00FF1587H   LINE      CODE     ---       #123
      00FF158FH   LINE      CODE     ---       #124
      00FF15A0H   LINE      CODE     ---       #125
      00FF15C0H   LINE      CODE     ---       #126
      00FF15C8H   LINE      CODE     ---       #127
      00FF15CFH   LINE      CODE     ---       #128
      00FF15D6H   LINE      CODE     ---       #130
      00FF15F6H   LINE      CODE     ---       #131
      00FF160EH   LINE      CODE     ---       #132
      00FF1632H   LINE      CODE     ---       #134
      00FF1632H   LINE      CODE     ---       #135
      00FF164DH   LINE      CODE     ---       #136
      ---         BLOCKEND  ---      ---       LVL=0

      00FF1C77H   BLOCK     CODE     ---       LVL=0
      R3          REGSYM    ---      BYTE      m
      R10         REGSYM    ---      BYTE      n
      00FF1C7BH   BLOCK     CODE     NEAR LAB  LVL=1
      WR6         REGSYM    ---      WORD      result
      ---         BLOCKEND  ---      ---       LVL=1
      00FF1C77H   LINE      CODE     ---       #138
      00FF1C7BH   LINE      CODE     ---       #139
      00FF1C7BH   LINE      CODE     ---       #140
      00FF1C7FH   LINE      CODE     ---       #141
      00FF1C8DH   LINE      CODE     ---       #142
      00FF1C8DH   LINE      CODE     ---       #143
      ---         BLOCKEND  ---      ---       LVL=0

      00FF1650H   BLOCK     CODE     ---       LVL=0
      00010072H   SYMBOL    XDATA    BYTE      x
      00010073H   SYMBOL    XDATA    BYTE      y
      WR14        REGSYM    ---      WORD      num
      R12         REGSYM    ---      BYTE      len
      R13         REGSYM    ---      BYTE      sizey
      00FF1662H   BLOCK     CODE     NEAR LAB  LVL=1
      00010074H   SYMBOL    XDATA    BYTE      t
      00010075H   SYMBOL    XDATA    BYTE      temp
      00010076H   SYMBOL    XDATA    BYTE      m
      00010077H   SYMBOL    XDATA    BYTE      enshow
      ---         BLOCKEND  ---      ---       LVL=1
      00FF1650H   LINE      CODE     ---       #149
      00FF1662H   LINE      CODE     ---       #150
      00FF1662H   LINE      CODE     ---       #151
      00FF1667H   LINE      CODE     ---       #152
      00FF166BH   LINE      CODE     ---       #153
L251 LINKER/LOCATER V4.66.93.0                                                        06/02/2023  17:32:45  PAGE 13


      00FF1676H   LINE      CODE     ---       #154
      00FF167EH   LINE      CODE     ---       #156
      00FF16A1H   LINE      CODE     ---       #157
      00FF16B5H   LINE      CODE     ---       #159
      00FF16BBH   LINE      CODE     ---       #161
      00FF16DAH   LINE      CODE     ---       #162
      00FF16DCH   LINE      CODE     ---       #163
      00FF16E2H   LINE      CODE     ---       #164
      00FF16E2H   LINE      CODE     ---       #165
      00FF1717H   LINE      CODE     ---       #166
      00FF1728H   LINE      CODE     ---       #167
      ---         BLOCKEND  ---      ---       LVL=0

      00FF1A75H   BLOCK     CODE     ---       LVL=0
      00010042H   SYMBOL    XDATA    BYTE      x
      00010043H   SYMBOL    XDATA    BYTE      y
      REG=3       REGSYM    ---      ---       chr
      00010044H   SYMBOL    XDATA    BYTE      sizey
      00FF1A89H   BLOCK     CODE     NEAR LAB  LVL=1
      00010045H   SYMBOL    XDATA    BYTE      j
      ---         BLOCKEND  ---      ---       LVL=1
      00FF1A75H   LINE      CODE     ---       #169
      00FF1A89H   LINE      CODE     ---       #170
      00FF1A89H   LINE      CODE     ---       #171
      00FF1A8EH   LINE      CODE     ---       #172
      00FF1A90H   LINE      CODE     ---       #174
      00FF1AB9H   LINE      CODE     ---       #175
      00FF1ACDH   LINE      CODE     ---       #176
      00FF1ADDH   LINE      CODE     ---       #177
      00FF1AECH   LINE      CODE     ---       #178
      ---         BLOCKEND  ---      ---       LVL=0

      00FF1963H   BLOCK     CODE     ---       LVL=0
      R12         REGSYM    ---      BYTE      x
      R13         REGSYM    ---      BYTE      y
      R14         REGSYM    ---      BYTE      no
      R15         REGSYM    ---      BYTE      sizey
      00FF196DH   BLOCK     CODE     NEAR LAB  LVL=1
      00010078H   SYMBOL    XDATA    WORD      i
      0001007AH   SYMBOL    XDATA    WORD      size1
      ---         BLOCKEND  ---      ---       LVL=1
      00FF1963H   LINE      CODE     ---       #180
      00FF196DH   LINE      CODE     ---       #181
      00FF196DH   LINE      CODE     ---       #182
      00FF1991H   LINE      CODE     ---       #183
      00FF1998H   LINE      CODE     ---       #185
      00FF19AFH   LINE      CODE     ---       #186
      00FF19D3H   LINE      CODE     ---       #188
      00FF19D3H   LINE      CODE     ---       #189
      00FF19EEH   LINE      CODE     ---       #190
      ---         BLOCKEND  ---      ---       LVL=0

      00FF18B3H   BLOCK     CODE     ---       LVL=0
      0001006AH   SYMBOL    XDATA    BYTE      x
      0001006BH   SYMBOL    XDATA    BYTE      y
      0001006CH   SYMBOL    XDATA    BYTE      sizex
      0001006DH   SYMBOL    XDATA    BYTE      sizey
      REG=3       REGSYM    ---      ---       BMP
      00FF18CDH   BLOCK     CODE     NEAR LAB  LVL=1
      0001006EH   SYMBOL    XDATA    WORD      j
      00010070H   SYMBOL    XDATA    BYTE      i
      00010071H   SYMBOL    XDATA    BYTE      m
      ---         BLOCKEND  ---      ---       LVL=1
      00FF18B3H   LINE      CODE     ---       #197
      00FF18CDH   LINE      CODE     ---       #198
L251 LINKER/LOCATER V4.66.93.0                                                        06/02/2023  17:32:45  PAGE 14


      00FF18CDH   LINE      CODE     ---       #199
      00FF18D5H   LINE      CODE     ---       #201
      00FF18F7H   LINE      CODE     ---       #202
      00FF18FEH   LINE      CODE     ---       #204
      00FF1917H   LINE      CODE     ---       #205
      00FF191EH   LINE      CODE     ---       #207
      00FF1938H   LINE      CODE     ---       #208
      00FF194CH   LINE      CODE     ---       #209
      00FF1960H   LINE      CODE     ---       #210
      ---         BLOCKEND  ---      ---       LVL=0

      00FF172BH   BLOCK     CODE     ---       LVL=0
      00FF172BH   LINE      CODE     ---       #215
      00FF172BH   LINE      CODE     ---       #217
      00FF172DH   LINE      CODE     ---       #218
      00FF1734H   LINE      CODE     ---       #219
      00FF1736H   LINE      CODE     ---       #221
      00FF173DH   LINE      CODE     ---       #222
      00FF1743H   LINE      CODE     ---       #223
      00FF174AH   LINE      CODE     ---       #224
      00FF1751H   LINE      CODE     ---       #225
      00FF1758H   LINE      CODE     ---       #226
      00FF175FH   LINE      CODE     ---       #227
      00FF1766H   LINE      CODE     ---       #228
      00FF176DH   LINE      CODE     ---       #229
      00FF1774H   LINE      CODE     ---       #230
      00FF177BH   LINE      CODE     ---       #231
      00FF1782H   LINE      CODE     ---       #232
      00FF1789H   LINE      CODE     ---       #233
      00FF178FH   LINE      CODE     ---       #234
      00FF1796H   LINE      CODE     ---       #235
      00FF179DH   LINE      CODE     ---       #236
      00FF17A4H   LINE      CODE     ---       #237
      00FF17ABH   LINE      CODE     ---       #238
      00FF17B2H   LINE      CODE     ---       #239
      00FF17B9H   LINE      CODE     ---       #240
      00FF17C0H   LINE      CODE     ---       #241
      00FF17C7H   LINE      CODE     ---       #242
      00FF17CEH   LINE      CODE     ---       #243
      00FF17D5H   LINE      CODE     ---       #244
      00FF17DCH   LINE      CODE     ---       #245
      00FF17E3H   LINE      CODE     ---       #246
      00FF17EAH   LINE      CODE     ---       #247
      00FF17F1H   LINE      CODE     ---       #248
      00FF17F4H   LINE      CODE     ---       #249
      ---         BLOCKEND  ---      ---       LVL=0

      ---         MODULE    ---      ---       ?C?FPADD
      00FF090CH   PUBLIC    CODE     ---       ?C?FPADD
      00FF0909H   PUBLIC    CODE     ---       ?C?FPSUB

      ---         MODULE    ---      ---       ?C?FPMUL
      00FF09C4H   PUBLIC    CODE     ---       ?C?FPMUL

      ---         MODULE    ---      ---       ?C?FPDIV
      00FF0A64H   PUBLIC    CODE     ---       ?C?FPDIV

      ---         MODULE    ---      ---       ?C?FCAST
      00FF0AEFH   PUBLIC    CODE     NEAR LAB  ?C?FCASTC
      00FF0AEAH   PUBLIC    CODE     NEAR LAB  ?C?FCASTI
      00FF0AE5H   PUBLIC    CODE     NEAR LAB  ?C?FCASTL

      ---         MODULE    ---      ---       SPRINTF
      0001006AH   PUBLIC    XDATA    ---       ?SPRINTF?BYTE
      00FF0B22H   PUBLIC    CODE     NEAR LAB  SPRINTF
L251 LINKER/LOCATER V4.66.93.0                                                        06/02/2023  17:32:45  PAGE 15



      ---         MODULE    ---      ---       ?C?FPGETOPN
      00FF0B42H   PUBLIC    CODE     ---       ?C?FPGETOPN2
      00FF0B7FH   PUBLIC    CODE     ---       ?C?FPNANRESULT
      00FF0B87H   PUBLIC    CODE     ---       ?C?FPOVERFLOW
      00FF0B5BH   PUBLIC    CODE     ---       ?C?FPRESULT
      00FF0B71H   PUBLIC    CODE     ---       ?C?FPRESULT2
      00FF0B84H   PUBLIC    CODE     ---       ?C?FPUNDERFLOW

      ---         MODULE    ---      ---       ?C?PRNFMT
      00FF0BC0H   PUBLIC    CODE     ---       ?C?PRNFMT

      ---         MODULE    ---      ---       ?C?FPCONVERT
      00FF0FDDH   PUBLIC    CODE     ---       ?C?FPCONVERT
      00FF1095H   PUBLIC    CODE     ---       ?C?FPROUND

      ---         MODULE    ---      ---       ?C?FTNPWR
      00FF1108H   PUBLIC    CODE     ---       ?C?FTNPWR

      ---         MODULE    ---      ---       ?C_START
      00FF0000H   PUBLIC    CODE     ---       ?C?STARTUP
      00FF0000H   PUBLIC    CODE     ---       ?C_STARTUP

      ---         MODULE    ---      ---       ?C?INITHDATA
      00FF1B58H   PUBLIC    CODE     ---       ?C?INITHDATA

      ---         MODULE    ---      ---       ?C?SIDIV
      00FF113FH   PUBLIC    CODE     ---       ?C?SIDIV

      ---         MODULE    ---      ---       ?C?INITHDATA_END
      00FF1D2CH   PUBLIC    HCONST   WORD      ?C?INITHDATA_END



*** WARNING L57: UNCALLED FUNCTION, IGNORED FOR OVERLAY PROCESS
    NAME:    pwm_Init/pwm

*** WARNING L57: UNCALLED FUNCTION, IGNORED FOR OVERLAY PROCESS
    NAME:    OLED_Display_On/oled

*** WARNING L57: UNCALLED FUNCTION, IGNORED FOR OVERLAY PROCESS
    NAME:    OLED_ShowNum/oled

*** WARNING L57: UNCALLED FUNCTION, IGNORED FOR OVERLAY PROCESS
    NAME:    OLED_Display_Off/oled

*** WARNING L57: UNCALLED FUNCTION, IGNORED FOR OVERLAY PROCESS
    NAME:    OLED_ShowChinese/oled

*** WARNING L57: UNCALLED FUNCTION, IGNORED FOR OVERLAY PROCESS
    NAME:    OLED_DrawBMP/oled

Program Size: data=8.1 edata+hdata=256 xdata=124 const=95 code=7382
L251 RUN COMPLETE.  6 WARNING(S),  0 ERROR(S)
